; Function Attrs: mustprogress nounwind uwtable
define internal void @"_ZNSt17_Function_handlerIFvRN4llvm16MachineIRBuilderEEZNS0_14CombinerHelper25matchRedundantNegOperandsERNS0_12MachineInstrERSt8functionIS3_EE3$_0E9_M_invokeERKSt9_Any_dataS2_"(ptr nocapture noundef nonnull readonly align 8 dereferenceable(16) %0, ptr nocapture noundef nonnull readonly align 8 dereferenceable(88) %1) #0 align 2 {
  %.val = load ptr, ptr %0, align 8
  %3 = getelementptr inbounds nuw i8, ptr %.val, i64 8
  %4 = load ptr, ptr %3, align 8
  %5 = getelementptr inbounds nuw i8, ptr %4, i64 16
  %6 = load ptr, ptr %5, align 8
  %7 = load ptr, ptr %.val, align 8
  %8 = load ptr, ptr %6, align 8
  %9 = getelementptr inbounds i8, ptr %8, i64 32
  %10 = load ptr, ptr %9, align 8
  tail call void %10(ptr noundef nonnull align 8 dereferenceable(72) %6, ptr noundef nonnull align 8 dereferenceable(70) %7) #27
  %11 = load ptr, ptr %.val, align 8
  %12 = getelementptr inbounds i8, ptr %1, i64 16
  %13 = load ptr, ptr %12, align 8
  %14 = getelementptr inbounds i8, ptr %13, i64 8
  %15 = getelementptr inbounds nuw i8, ptr %.val, i64 16
  %16 = load i32, ptr %15, align 8
  %17 = load ptr, ptr %14, align 8
  %18 = zext i32 %16 to i64
  %19 = sub nsw i64 0, %18
  %20 = getelementptr inbounds %"class.llvm::MCInstrDesc", ptr %17, i64 %19
  tail call void @_ZN4llvm12MachineInstr7setDescERKNS_11MCInstrDescE(ptr noundef nonnull align 8 dereferenceable(70) %11, ptr noundef nonnull align 8 dereferenceable(32) %20) #27
  %21 = load ptr, ptr %.val, align 8
  %22 = getelementptr inbounds nuw i8, ptr %21, i64 32
  %23 = load ptr, ptr %22, align 8
  %24 = getelementptr inbounds i8, ptr %23, i64 32
  %25 = getelementptr inbounds nuw i8, ptr %.val, i64 20
  %.sroa.01.0.copyload.i.i.i = load i32, ptr %25, align 4
  tail call void @_ZN4llvm14MachineOperand6setRegENS_8RegisterE(ptr noundef nonnull align 8 dereferenceable(32) %24, i32 %.sroa.01.0.copyload.i.i.i) #27
  %26 = load ptr, ptr %.val, align 8
  %27 = getelementptr inbounds nuw i8, ptr %26, i64 32
  %28 = load ptr, ptr %27, align 8
  %29 = getelementptr inbounds i8, ptr %28, i64 64
  %30 = getelementptr inbounds nuw i8, ptr %.val, i64 24
  %.sroa.0.0.copyload.i.i.i = load i32, ptr %30, align 8
  tail call void @_ZN4llvm14MachineOperand6setRegENS_8RegisterE(ptr noundef nonnull align 8 dereferenceable(32) %29, i32 %.sroa.0.0.copyload.i.i.i) #27
  %31 = load ptr, ptr %5, align 8
  %32 = load ptr, ptr %.val, align 8
  %33 = load ptr, ptr %31, align 8
  %34 = getelementptr inbounds i8, ptr %33, i64 40
  %35 = load ptr, ptr %34, align 8
  tail call void %35(ptr noundef nonnull align 8 dereferenceable(72) %31, ptr noundef nonnull align 8 dereferenceable(70) %32) #27
  ret void
}